	.file	"softfloat.c"
	.text
.Ltext0:
	.cfi_sections	.debug_frame
	.section	.rodata
.LC2:
	.string	"\0016[soft-float] hex(a) = %llx\n"
.LC3:
	.string	"\0016[soft-float] hex(b) = %llx\n"
	.globl	__muldf3
	.align 8
.LC4:
	.string	"\0016[soft-float] hex(a*b) = %llx\n"
	.section	.init.text,"ax",@progbits
	.type	init_float, @function
init_float:
.LFB1098:
	.file 1 "/home/gnoliyil/osprac/hw6/ex1/soft-float-clang/softfloat.c"
	.loc 1 6 0
	.cfi_startproc
	pushq	%rbp
	.cfi_def_cfa_offset 16
	.cfi_offset 6, -16
	movq	%rsp, %rbp
	.cfi_def_cfa_register 6
	subq	$32, %rsp
	.loc 1 7 0
	movabsq	$4614256656431372362, %rax
	movq	%rax, -8(%rbp)
	.loc 1 8 0
	movabsq	$4608238818256690525, %rax
	movq	%rax, -16(%rbp)
	.loc 1 9 0
	leaq	-8(%rbp), %rax
	movq	(%rax), %rax
	movq	%rax, %rsi
	movq	$.LC2, %rdi
	movl	$0, %eax
	call	printk
	.loc 1 10 0
	leaq	-16(%rbp), %rax
	movq	(%rax), %rax
	movq	%rax, %rsi
	movq	$.LC3, %rdi
	movl	$0, %eax
	call	printk
	.loc 1 11 0
	movsd	-8(%rbp), %xmm0
	movsd	-16(%rbp), %xmm1
	call	__muldf3
	movsd	%xmm0, -24(%rbp)
	movq	-24(%rbp), %rax
	movq	%rax, -16(%rbp)
	.loc 1 12 0
	leaq	-16(%rbp), %rax
	movq	(%rax), %rax
	movq	%rax, %rsi
	movq	$.LC4, %rdi
	movl	$0, %eax
	call	printk
	.loc 1 13 0
	movl	$0, %eax
	.loc 1 14 0
	leave
	.cfi_restore 6
	.cfi_def_cfa 7, 8
	ret
	.cfi_endproc
.LFE1098:
	.size	init_float, .-init_float
	.globl	init_module
	.set	init_module,init_float
	.section	.rodata
.LC5:
	.string	"\0016[soft-float] Goodbye.\n"
	.section	.exit.text,"ax",@progbits
	.type	exit_float, @function
exit_float:
.LFB1099:
	.loc 1 17 0
	.cfi_startproc
	pushq	%rbp
	.cfi_def_cfa_offset 16
	.cfi_offset 6, -16
	movq	%rsp, %rbp
	.cfi_def_cfa_register 6
	.loc 1 18 0
	movq	$.LC5, %rdi
	movl	$0, %eax
	call	printk
	.loc 1 19 0
	popq	%rbp
	.cfi_restore 6
	.cfi_def_cfa 7, 8
	ret
	.cfi_endproc
.LFE1099:
	.size	exit_float, .-exit_float
	.globl	cleanup_module
	.set	cleanup_module,exit_float
	.text
.Letext0:
	.file 2 "include/uapi/asm-generic/int-ll64.h"
	.file 3 "include/asm-generic/int-ll64.h"
	.file 4 "include/linux/types.h"
	.file 5 "./arch/x86/include/asm/ptrace.h"
	.file 6 "./arch/x86/include/asm/desc_defs.h"
	.file 7 "./arch/x86/include/asm/pgtable_64_types.h"
	.file 8 "./arch/x86/include/asm/pgtable_types.h"
	.file 9 "./arch/x86/include/asm/paravirt_types.h"
	.file 10 "./arch/x86/include/asm/processor.h"
	.file 11 "include/linux/mm_types.h"
	.file 12 "include/linux/cpumask.h"
	.file 13 "./arch/x86/include/asm/spinlock_types.h"
	.file 14 "./arch/x86/include/asm/vm86.h"
	.file 15 "./arch/x86/include/asm/math_emu.h"
	.file 16 "include/asm-generic/atomic-long.h"
	.file 17 "include/linux/spinlock_types.h"
	.file 18 "include/linux/jump_label.h"
	.file 19 "./arch/x86/include/asm/jump_label.h"
	.file 20 "include/linux/seqlock.h"
	.file 21 "include/linux/wait.h"
	.file 22 "include/linux/nodemask.h"
	.file 23 "include/linux/mmzone.h"
	.file 24 "include/linux/osq_lock.h"
	.file 25 "include/linux/mutex.h"
	.file 26 "include/linux/rwsem.h"
	.file 27 "include/linux/completion.h"
	.file 28 "./arch/x86/include/asm/mpspec_def.h"
	.file 29 "include/linux/ioport.h"
	.file 30 "./arch/x86/include/asm/x86_init.h"
	.file 31 "./arch/x86/include/asm/io_apic.h"
	.file 32 "./arch/x86/include/asm/mpspec.h"
	.file 33 "./arch/x86/include/asm/mmu.h"
	.file 34 "include/linux/rbtree.h"
	.file 35 "./arch/x86/include/asm/apic.h"
	.file 36 "./arch/x86/include/asm/smp.h"
	.file 37 "include/linux/uprobes.h"
	.file 38 "./arch/x86/include/asm/page_types.h"
	.file 39 "include/linux/printk.h"
	.file 40 "include/linux/kernel.h"
	.file 41 "include/asm-generic/percpu.h"
	.file 42 "./arch/x86/include/asm/page_64.h"
	.file 43 "./arch/x86/include/asm/current.h"
	.file 44 "./arch/x86/include/asm/special_insns.h"
	.file 45 "./arch/x86/include/asm/thread_info.h"
	.file 46 "./arch/x86/include/asm/preempt.h"
	.file 47 "./arch/x86/include/asm/spinlock.h"
	.file 48 "include/linux/jiffies.h"
	.file 49 "include/linux/timekeeping.h"
	.file 50 "include/linux/timer.h"
	.file 51 "include/linux/workqueue.h"
	.file 52 "./arch/x86/include/asm/mmzone_64.h"
	.file 53 "./arch/x86/include/asm/topology.h"
	.file 54 "./arch/x86/include/asm/numa.h"
	.file 55 "./arch/x86/include/asm/acpi.h"
	.file 56 "include/linux/topology.h"
	.section	.note.GNU-stack,"",@progbits
